target datalayout = "e-m:e-p270:32:32-p271:32:32-p272:64:64-i64:64-i128:128-f80:128-n8:16:32:64-S128"
target triple = "x86_64-pc-linux-gnu"

%struct.SDL_Renderer = type { ptr, ptr, ptr, ptr, ptr, ptr, ptr, ptr, ptr, ptr, ptr, ptr, ptr, ptr, ptr, ptr, ptr, ptr, ptr, ptr, ptr, ptr, ptr, ptr, ptr, ptr, ptr, ptr, ptr, ptr, i32, i8, ptr, i8, i8, i8, i64, i64, ptr, %struct.SDL_RenderViewState, %struct.SDL_FPoint, i32, i32, ptr, ptr, ptr, i32, float, float, float, float, %struct.SDL_FColor, i32, i32, i32, ptr, ptr, ptr, ptr, i32, %struct.SDL_FColor, float, %struct.SDL_Rect, %struct.SDL_Rect, i8, i8, i8, i8, ptr, i64, i64, i8, ptr, ptr, i32, ptr, i8, ptr, ptr }
%struct.SDL_RenderViewState = type { i32, i32, %struct.SDL_Rect, %struct.SDL_Rect, %struct.SDL_Rect, %struct.SDL_Rect, i8, %struct.SDL_FPoint, i32, i32, i32, %struct.SDL_FRect, %struct.SDL_FRect, %struct.SDL_FPoint, %struct.SDL_FPoint, %struct.SDL_FPoint }
%struct.SDL_FRect = type { float, float, float, float }
%struct.SDL_FPoint = type { float, float }
%struct.SDL_FColor = type { float, float, float, float }
%struct.SDL_Rect = type { i32, i32, i32, i32 }
%struct.VULKAN_Buffer = type { ptr, ptr, i64, ptr }
%struct.SDL_Texture = type { i32, i32, i32, i32, i32, float, float, i32, i32, i32, %struct.SDL_FColor, %struct.SDL_RenderViewState, ptr, ptr, ptr, ptr, i32, %struct.SDL_Rect, ptr, i32, i32, ptr, ptr, ptr }
%struct.VULKAN_TextureData = type { %struct.VULKAN_Image, [2 x ptr], ptr, %struct.VULKAN_Buffer, %struct.SDL_Rect, i32, i32, i32, ptr, ptr, ptr, ptr }
%struct.VULKAN_Image = type { i8, ptr, ptr, ptr, i32, i32 }

@.str.25 = private unnamed_addr constant [35 x i8] c"Texture is not currently available\00", align 1

; Function Attrs: nounwind uwtable
define internal zeroext i1 @VULKAN_UpdateTextureNV(ptr noundef %0, ptr noundef %1, ptr noundef %2, ptr noundef %3, i32 noundef %4, ptr noundef %5, i32 noundef %6) #0 {
  %8 = alloca i1, align 1
  %9 = alloca ptr, align 8
  %10 = alloca ptr, align 8
  %11 = alloca ptr, align 8
  %12 = alloca ptr, align 8
  %13 = alloca i32, align 4
  %14 = alloca ptr, align 8
  %15 = alloca i32, align 4
  %16 = alloca ptr, align 8
  %17 = alloca ptr, align 8
  %18 = alloca i32, align 4
  store ptr %0, ptr %9, align 8
  store ptr %1, ptr %10, align 8
  store ptr %2, ptr %11, align 8
  store ptr %3, ptr %12, align 8
  store i32 %4, ptr %13, align 4
  store ptr %5, ptr %14, align 8
  store i32 %6, ptr %15, align 4
  call void @llvm.lifetime.start.p0(i64 8, ptr %16) #6
  %19 = load ptr, ptr %9, align 8
  %20 = getelementptr inbounds nuw %struct.SDL_Renderer, ptr %19, i32 0, i32 77
  %21 = load ptr, ptr %20, align 8
  store ptr %21, ptr %16, align 8
  call void @llvm.lifetime.start.p0(i64 8, ptr %17) #6
  %22 = load ptr, ptr %10, align 8
  %23 = getelementptr inbounds nuw %struct.SDL_Texture, ptr %22, i32 0, i32 21
  %24 = load ptr, ptr %23, align 8
  store ptr %24, ptr %17, align 8
  %25 = load ptr, ptr %17, align 8
  %26 = icmp ne ptr %25, null
  br i1 %26, label %29, label %27

27:                                               ; preds = %7
  %28 = call zeroext i1 (ptr, ...) @SDL_SetError_REAL(ptr noundef @.str.25)
  store i1 %28, ptr %8, align 1
  store i32 1, ptr %18, align 4
  br label %94

29:                                               ; preds = %7
  %30 = load ptr, ptr %16, align 8
  %31 = load ptr, ptr %17, align 8
  %32 = getelementptr inbounds nuw %struct.VULKAN_TextureData, ptr %31, i32 0, i32 0
  %33 = getelementptr inbounds nuw %struct.VULKAN_Image, ptr %32, i32 0, i32 1
  %34 = load ptr, ptr %33, align 8
  %35 = load ptr, ptr %17, align 8
  %36 = getelementptr inbounds nuw %struct.VULKAN_TextureData, ptr %35, i32 0, i32 0
  %37 = getelementptr inbounds nuw %struct.VULKAN_Image, ptr %36, i32 0, i32 5
  %38 = load i32, ptr %37, align 4
  %39 = load ptr, ptr %11, align 8
  %40 = getelementptr inbounds nuw %struct.SDL_Rect, ptr %39, i32 0, i32 0
  %41 = load i32, ptr %40, align 4
  %42 = load ptr, ptr %11, align 8
  %43 = getelementptr inbounds nuw %struct.SDL_Rect, ptr %42, i32 0, i32 1
  %44 = load i32, ptr %43, align 4
  %45 = load ptr, ptr %11, align 8
  %46 = getelementptr inbounds nuw %struct.SDL_Rect, ptr %45, i32 0, i32 2
  %47 = load i32, ptr %46, align 4
  %48 = load ptr, ptr %11, align 8
  %49 = getelementptr inbounds nuw %struct.SDL_Rect, ptr %48, i32 0, i32 3
  %50 = load i32, ptr %49, align 4
  %51 = load ptr, ptr %12, align 8
  %52 = load i32, ptr %13, align 4
  %53 = load ptr, ptr %17, align 8
  %54 = getelementptr inbounds nuw %struct.VULKAN_TextureData, ptr %53, i32 0, i32 0
  %55 = getelementptr inbounds nuw %struct.VULKAN_Image, ptr %54, i32 0, i32 4
  %56 = call zeroext i1 @VULKAN_UpdateTextureInternal(ptr noundef %30, ptr noundef %34, i32 noundef %38, i32 noundef 0, i32 noundef %41, i32 noundef %44, i32 noundef %47, i32 noundef %50, ptr noundef %51, i32 noundef %52, ptr noundef %55)
  br i1 %56, label %58, label %57

57:                                               ; preds = %29
  store i1 false, ptr %8, align 1
  store i32 1, ptr %18, align 4
  br label %94

58:                                               ; preds = %29
  %59 = load ptr, ptr %16, align 8
  %60 = load ptr, ptr %17, align 8
  %61 = getelementptr inbounds nuw %struct.VULKAN_TextureData, ptr %60, i32 0, i32 0
  %62 = getelementptr inbounds nuw %struct.VULKAN_Image, ptr %61, i32 0, i32 1
  %63 = load ptr, ptr %62, align 8
  %64 = load ptr, ptr %17, align 8
  %65 = getelementptr inbounds nuw %struct.VULKAN_TextureData, ptr %64, i32 0, i32 0
  %66 = getelementptr inbounds nuw %struct.VULKAN_Image, ptr %65, i32 0, i32 5
  %67 = load i32, ptr %66, align 4
  %68 = load ptr, ptr %11, align 8
  %69 = getelementptr inbounds nuw %struct.SDL_Rect, ptr %68, i32 0, i32 0
  %70 = load i32, ptr %69, align 4
  %71 = sdiv i32 %70, 2
  %72 = load ptr, ptr %11, align 8
  %73 = getelementptr inbounds nuw %struct.SDL_Rect, ptr %72, i32 0, i32 1
  %74 = load i32, ptr %73, align 4
  %75 = sdiv i32 %74, 2
  %76 = load ptr, ptr %11, align 8
  %77 = getelementptr inbounds nuw %struct.SDL_Rect, ptr %76, i32 0, i32 2
  %78 = load i32, ptr %77, align 4
  %79 = add nsw i32 %78, 1
  %80 = sdiv i32 %79, 2
  %81 = load ptr, ptr %11, align 8
  %82 = getelementptr inbounds nuw %struct.SDL_Rect, ptr %81, i32 0, i32 3
  %83 = load i32, ptr %82, align 4
  %84 = add nsw i32 %83, 1
  %85 = sdiv i32 %84, 2
  %86 = load ptr, ptr %14, align 8
  %87 = load i32, ptr %15, align 4
  %88 = load ptr, ptr %17, align 8
  %89 = getelementptr inbounds nuw %struct.VULKAN_TextureData, ptr %88, i32 0, i32 0
  %90 = getelementptr inbounds nuw %struct.VULKAN_Image, ptr %89, i32 0, i32 4
  %91 = call zeroext i1 @VULKAN_UpdateTextureInternal(ptr noundef %59, ptr noundef %63, i32 noundef %67, i32 noundef 1, i32 noundef %71, i32 noundef %75, i32 noundef %80, i32 noundef %85, ptr noundef %86, i32 noundef %87, ptr noundef %90)
  br i1 %91, label %93, label %92

92:                                               ; preds = %58
  store i1 false, ptr %8, align 1
  store i32 1, ptr %18, align 4
  br label %94

93:                                               ; preds = %58
  store i1 true, ptr %8, align 1
  store i32 1, ptr %18, align 4
  br label %94

94:                                               ; preds = %93, %92, %57, %27
  call void @llvm.lifetime.end.p0(i64 8, ptr %17) #6
  call void @llvm.lifetime.end.p0(i64 8, ptr %16) #6
  %95 = load i1, ptr %8, align 1
  ret i1 %95
}