; Function Attrs: nounwind uwtable
define internal zeroext i1 @VULKAN_UpdateTextureNV(ptr noundef readonly captures(none) %0, ptr noundef readonly captures(none) %1, ptr noundef readonly captures(none) %2, ptr noundef readonly captures(none) %3, i32 noundef %4, ptr noundef readonly captures(none) %5, i32 noundef %6) #0 {
  %8 = getelementptr inbounds nuw i8, ptr %0, i64 696
  %9 = load ptr, ptr %8, align 8
  %10 = getelementptr inbounds nuw i8, ptr %1, i64 280
  %11 = load ptr, ptr %10, align 8
  %.not = icmp eq ptr %11, null
  br i1 %.not, label %12, label %14

12:                                               ; preds = %7
  %13 = tail call zeroext i1 (ptr, ...) @SDL_SetError_REAL(ptr noundef nonnull @.str.25) #8
  br label %42

14:                                               ; preds = %7
  %15 = getelementptr inbounds nuw i8, ptr %11, i64 8
  %16 = load ptr, ptr %15, align 8
  %17 = getelementptr inbounds nuw i8, ptr %11, i64 36
  %18 = load i32, ptr %17, align 4
  %19 = load i32, ptr %2, align 4
  %20 = getelementptr inbounds nuw i8, ptr %2, i64 4
  %21 = load i32, ptr %20, align 4
  %22 = getelementptr inbounds nuw i8, ptr %2, i64 8
  %23 = load i32, ptr %22, align 4
  %24 = getelementptr inbounds nuw i8, ptr %2, i64 12
  %25 = load i32, ptr %24, align 4
  %26 = getelementptr inbounds nuw i8, ptr %11, i64 32
  %27 = tail call fastcc zeroext i1 @VULKAN_UpdateTextureInternal(ptr noundef %9, ptr noundef %16, i32 noundef %18, i32 noundef 0, i32 noundef %19, i32 noundef %21, i32 noundef %23, i32 noundef %25, ptr noundef %3, i32 noundef %4, ptr noundef %26)
  br i1 %27, label %28, label %42

28:                                               ; preds = %14
  %29 = load ptr, ptr %15, align 8
  %30 = load i32, ptr %17, align 4
  %31 = load i32, ptr %2, align 4
  %32 = sdiv i32 %31, 2
  %33 = load i32, ptr %20, align 4
  %34 = sdiv i32 %33, 2
  %35 = load i32, ptr %22, align 4
  %36 = add nsw i32 %35, 1
  %37 = sdiv i32 %36, 2
  %38 = load i32, ptr %24, align 4
  %39 = add nsw i32 %38, 1
  %40 = sdiv i32 %39, 2
  %41 = tail call fastcc zeroext i1 @VULKAN_UpdateTextureInternal(ptr noundef %9, ptr noundef %29, i32 noundef %30, i32 noundef 1, i32 noundef %32, i32 noundef %34, i32 noundef %37, i32 noundef %40, ptr noundef %5, i32 noundef %6, ptr noundef %26)
  br label %42

42:                                               ; preds = %28, %14, %12
  %.0 = phi i1 [ %13, %12 ], [ false, %14 ], [ %41, %28 ]
  ret i1 %.0
}